target datalayout = "e-m:e-p270:32:32-p271:32:32-p272:64:64-i64:64-i128:128-f80:128-n8:16:32:64-S128"
target triple = "x86_64-pc-linux-gnu"

%struct.expert_field = type { i32, i32 }

@hf_pfcp_traffic_class = internal global i32 0, align 4
@hf_pfcp_traffic_mask = internal global i32 0, align 4
@hf_pfcp_sci = internal global i32 0, align 4
@ei_pfcp_ie_data_not_decoded = internal global %struct.expert_field zeroinitializer, align 4
@dissect_pfcp_dl_flow_level_marking.pfcp_dl_flow_level_marking_flags = internal constant [4 x ptr] [ptr @hf_pfcp_spare_b7_b2, ptr @hf_pfcp_dl_flow_level_marking_b1_sci, ptr @hf_pfcp_dl_flow_level_marking_b0_ttc, ptr null], align 16

; Function Attrs: null_pointer_is_valid sspstrong uwtable
define internal void @dissect_pfcp_dl_flow_level_marking(ptr noundef %0, ptr noundef %1, ptr noundef %2, ptr noundef %3, i16 noundef zeroext %4, i8 noundef zeroext %5, ptr noundef %6) #0 {
  %8 = alloca ptr, align 8
  %9 = alloca ptr, align 8
  %10 = alloca ptr, align 8
  %11 = alloca ptr, align 8
  %12 = alloca i16, align 2
  %13 = alloca i8, align 1
  %14 = alloca ptr, align 8
  %15 = alloca i32, align 4
  %16 = alloca i64, align 8
  store ptr %0, ptr %8, align 8
  store ptr %1, ptr %9, align 8
  store ptr %2, ptr %10, align 8
  store ptr %3, ptr %11, align 8
  store i16 %4, ptr %12, align 2
  store i8 %5, ptr %13, align 1
  store ptr %6, ptr %14, align 8
  call void @llvm.lifetime.start.p0(i64 4, ptr %15) #13
  store i32 0, ptr %15, align 4
  call void @llvm.lifetime.start.p0(i64 8, ptr %16) #13
  %17 = load ptr, ptr %10, align 8
  %18 = load ptr, ptr %8, align 8
  %19 = load i32, ptr %15, align 4
  call void @proto_tree_add_bitmask_list_ret_uint64(ptr noundef %17, ptr noundef %18, i32 noundef %19, i32 noundef 1, ptr noundef @dissect_pfcp_dl_flow_level_marking.pfcp_dl_flow_level_marking_flags, i32 noundef 0, ptr noundef %16)
  %20 = load i32, ptr %15, align 4
  %21 = add i32 %20, 1
  store i32 %21, ptr %15, align 4
  %22 = load i64, ptr %16, align 8
  %23 = and i64 %22, 1
  %24 = icmp eq i64 %23, 1
  br i1 %24, label %25, label %40

25:                                               ; preds = %7
  %26 = load ptr, ptr %10, align 8
  %27 = load i32, ptr @hf_pfcp_traffic_class, align 4
  %28 = load ptr, ptr %8, align 8
  %29 = load i32, ptr %15, align 4
  %30 = call ptr @proto_tree_add_item(ptr noundef %26, i32 noundef %27, ptr noundef %28, i32 noundef %29, i32 noundef 1, i32 noundef 0)
  %31 = load i32, ptr %15, align 4
  %32 = add i32 %31, 1
  store i32 %32, ptr %15, align 4
  %33 = load ptr, ptr %10, align 8
  %34 = load i32, ptr @hf_pfcp_traffic_mask, align 4
  %35 = load ptr, ptr %8, align 8
  %36 = load i32, ptr %15, align 4
  %37 = call ptr @proto_tree_add_item(ptr noundef %33, i32 noundef %34, ptr noundef %35, i32 noundef %36, i32 noundef 1, i32 noundef 0)
  %38 = load i32, ptr %15, align 4
  %39 = add i32 %38, 1
  store i32 %39, ptr %15, align 4
  br label %40

40:                                               ; preds = %25, %7
  %41 = load i64, ptr %16, align 8
  %42 = and i64 %41, 2
  %43 = icmp eq i64 %42, 2
  br i1 %43, label %44, label %52

44:                                               ; preds = %40
  %45 = load ptr, ptr %10, align 8
  %46 = load i32, ptr @hf_pfcp_sci, align 4
  %47 = load ptr, ptr %8, align 8
  %48 = load i32, ptr %15, align 4
  %49 = call ptr @proto_tree_add_item(ptr noundef %45, i32 noundef %46, ptr noundef %47, i32 noundef %48, i32 noundef 2, i32 noundef 0)
  %50 = load i32, ptr %15, align 4
  %51 = add i32 %50, 2
  store i32 %51, ptr %15, align 4
  br label %52

52:                                               ; preds = %44, %40
  %53 = load i32, ptr %15, align 4
  %54 = load i16, ptr %12, align 2
  %55 = zext i16 %54 to i32
  %56 = icmp slt i32 %53, %55
  br i1 %56, label %57, label %63

57:                                               ; preds = %52
  %58 = load ptr, ptr %10, align 8
  %59 = load ptr, ptr %9, align 8
  %60 = load ptr, ptr %8, align 8
  %61 = load i32, ptr %15, align 4
  %62 = call ptr @proto_tree_add_expert(ptr noundef %58, ptr noundef %59, ptr noundef @ei_pfcp_ie_data_not_decoded, ptr noundef %60, i32 noundef %61, i32 noundef -1)
  br label %63

63:                                               ; preds = %57, %52
  call void @llvm.lifetime.end.p0(i64 8, ptr %16) #13
  call void @llvm.lifetime.end.p0(i64 4, ptr %15) #13
  ret void
}