; Function Attrs: null_pointer_is_valid sspstrong uwtable
define internal void @dissect_pfcp_dl_flow_level_marking(ptr noundef %0, ptr noundef %1, ptr noundef %2, ptr readnone captures(none) %3, i16 noundef zeroext %4, i8 zeroext %5, ptr readnone captures(none) %6) #0 {
  %8 = alloca i64, align 8
  call void @llvm.lifetime.start.p0(i64 8, ptr nonnull %8) #15
  call void @proto_tree_add_bitmask_list_ret_uint64(ptr noundef %2, ptr noundef %0, i32 noundef 0, i32 noundef 1, ptr noundef nonnull @dissect_pfcp_dl_flow_level_marking.pfcp_dl_flow_level_marking_flags, i32 noundef 0, ptr noundef nonnull %8)
  %9 = load i64, ptr %8, align 8
  %10 = and i64 %9, 1
  %.not = icmp eq i64 %10, 0
  br i1 %.not, label %16, label %11

11:                                               ; preds = %7
  %12 = load i32, ptr @hf_pfcp_traffic_class, align 4
  %13 = call ptr @proto_tree_add_item(ptr noundef %2, i32 noundef %12, ptr noundef %0, i32 noundef 1, i32 noundef 1, i32 noundef 0)
  %14 = load i32, ptr @hf_pfcp_traffic_mask, align 4
  %15 = call ptr @proto_tree_add_item(ptr noundef %2, i32 noundef %14, ptr noundef %0, i32 noundef 2, i32 noundef 1, i32 noundef 0)
  %.pre = load i64, ptr %8, align 8
  br label %16

16:                                               ; preds = %11, %7
  %17 = phi i64 [ %.pre, %11 ], [ %9, %7 ]
  %.0 = phi i32 [ 3, %11 ], [ 1, %7 ]
  %18 = and i64 %17, 2
  %.not21 = icmp eq i64 %18, 0
  br i1 %.not21, label %23, label %19

19:                                               ; preds = %16
  %20 = load i32, ptr @hf_pfcp_sci, align 4
  %21 = call ptr @proto_tree_add_item(ptr noundef %2, i32 noundef %20, ptr noundef %0, i32 noundef %.0, i32 noundef 2, i32 noundef 0)
  %22 = add nuw nsw i32 %.0, 2
  br label %23

23:                                               ; preds = %19, %16
  %.1 = phi i32 [ %22, %19 ], [ %.0, %16 ]
  %24 = zext i16 %4 to i32
  %25 = icmp samesign ult i32 %.1, %24
  br i1 %25, label %26, label %28

26:                                               ; preds = %23
  %27 = call ptr @proto_tree_add_expert(ptr noundef %2, ptr noundef %1, ptr noundef nonnull @ei_pfcp_ie_data_not_decoded, ptr noundef %0, i32 noundef %.1, i32 noundef -1)
  br label %28

28:                                               ; preds = %26, %23
  call void @llvm.lifetime.end.p0(i64 8, ptr nonnull %8) #15
  ret void
}